; ModuleID = '9/1317.c'
source_filename = "9/1317.c"
target datalayout = "e-m:e-p270:32:32-p271:32:32-p272:64:64-i64:64-f80:128-n8:16:32:64-S128"
target triple = "x86_64-pc-linux-gnu"

%struct.patient = type { [11 x i8], i32 }

@.str = private unnamed_addr constant [3 x i8] c"%d\00", align 1
@.str.1 = private unnamed_addr constant [6 x i8] c"%s %d\00", align 1
@.str.2 = private unnamed_addr constant [4 x i8] c"%s\0A\00", align 1

; Function Attrs: noinline nounwind uwtable
define dso_local i32 @main() #0 {
  %1 = alloca i32, align 4
  %2 = alloca i32, align 4
  %3 = alloca i32, align 4
  %4 = alloca [100 x %struct.patient], align 16
  %5 = alloca [100 x %struct.patient], align 16
  %6 = alloca i32, align 4
  %7 = alloca i32, align 4
  %8 = alloca [11 x i8], align 1
  store i32 0, i32* %1, align 4
  %9 = call i32 (i8*, ...) @__isoc99_scanf(i8* getelementptr inbounds ([3 x i8], [3 x i8]* @.str, i64 0, i64 0), i32* %2)
  store i32 0, i32* %3, align 4
  br label %10

10:                                               ; preds = %45, %0
  %11 = load i32, i32* %3, align 4
  %12 = load i32, i32* %2, align 4
  %13 = icmp slt i32 %11, %12
  br i1 %13, label %14, label %48

14:                                               ; preds = %10
  %15 = load i32, i32* %3, align 4
  %16 = sext i32 %15 to i64
  %17 = getelementptr inbounds [100 x %struct.patient], [100 x %struct.patient]* %4, i64 0, i64 %16
  %18 = getelementptr inbounds %struct.patient, %struct.patient* %17, i32 0, i32 0
  %19 = getelementptr inbounds [11 x i8], [11 x i8]* %18, i64 0, i64 0
  %20 = load i32, i32* %3, align 4
  %21 = sext i32 %20 to i64
  %22 = getelementptr inbounds [100 x %struct.patient], [100 x %struct.patient]* %4, i64 0, i64 %21
  %23 = getelementptr inbounds %struct.patient, %struct.patient* %22, i32 0, i32 1
  %24 = call i32 (i8*, ...) @__isoc99_scanf(i8* getelementptr inbounds ([6 x i8], [6 x i8]* @.str.1, i64 0, i64 0), i8* %19, i32* %23)
  %25 = load i32, i32* %3, align 4
  %26 = sext i32 %25 to i64
  %27 = getelementptr inbounds [100 x %struct.patient], [100 x %struct.patient]* %5, i64 0, i64 %26
  %28 = getelementptr inbounds %struct.patient, %struct.patient* %27, i32 0, i32 0
  %29 = getelementptr inbounds [11 x i8], [11 x i8]* %28, i64 0, i64 0
  %30 = load i32, i32* %3, align 4
  %31 = sext i32 %30 to i64
  %32 = getelementptr inbounds [100 x %struct.patient], [100 x %struct.patient]* %4, i64 0, i64 %31
  %33 = getelementptr inbounds %struct.patient, %struct.patient* %32, i32 0, i32 0
  %34 = getelementptr inbounds [11 x i8], [11 x i8]* %33, i64 0, i64 0
  %35 = call i8* @strcpy(i8* %29, i8* %34) #3
  %36 = load i32, i32* %3, align 4
  %37 = sext i32 %36 to i64
  %38 = getelementptr inbounds [100 x %struct.patient], [100 x %struct.patient]* %4, i64 0, i64 %37
  %39 = getelementptr inbounds %struct.patient, %struct.patient* %38, i32 0, i32 1
  %40 = load i32, i32* %39, align 4
  %41 = load i32, i32* %3, align 4
  %42 = sext i32 %41 to i64
  %43 = getelementptr inbounds [100 x %struct.patient], [100 x %struct.patient]* %5, i64 0, i64 %42
  %44 = getelementptr inbounds %struct.patient, %struct.patient* %43, i32 0, i32 1
  store i32 %40, i32* %44, align 4
  br label %45

45:                                               ; preds = %14
  %46 = load i32, i32* %3, align 4
  %47 = add nsw i32 %46, 1
  store i32 %47, i32* %3, align 4
  br label %10

48:                                               ; preds = %10
  store i32 1, i32* %6, align 4
  br label %49

49:                                               ; preds = %127, %48
  %50 = load i32, i32* %6, align 4
  %51 = load i32, i32* %2, align 4
  %52 = icmp slt i32 %50, %51
  br i1 %52, label %53, label %130

53:                                               ; preds = %49
  store i32 0, i32* %3, align 4
  br label %54

54:                                               ; preds = %123, %53
  %55 = load i32, i32* %3, align 4
  %56 = load i32, i32* %2, align 4
  %57 = load i32, i32* %6, align 4
  %58 = sub nsw i32 %56, %57
  %59 = icmp slt i32 %55, %58
  br i1 %59, label %60, label %126

60:                                               ; preds = %54
  %61 = load i32, i32* %3, align 4
  %62 = sext i32 %61 to i64
  %63 = getelementptr inbounds [100 x %struct.patient], [100 x %struct.patient]* %4, i64 0, i64 %62
  %64 = getelementptr inbounds %struct.patient, %struct.patient* %63, i32 0, i32 1
  %65 = load i32, i32* %64, align 4
  %66 = load i32, i32* %3, align 4
  %67 = add nsw i32 %66, 1
  %68 = sext i32 %67 to i64
  %69 = getelementptr inbounds [100 x %struct.patient], [100 x %struct.patient]* %4, i64 0, i64 %68
  %70 = getelementptr inbounds %struct.patient, %struct.patient* %69, i32 0, i32 1
  %71 = load i32, i32* %70, align 4
  %72 = icmp slt i32 %65, %71
  br i1 %72, label %73, label %122

73:                                               ; preds = %60
  %74 = load i32, i32* %3, align 4
  %75 = add nsw i32 %74, 1
  %76 = sext i32 %75 to i64
  %77 = getelementptr inbounds [100 x %struct.patient], [100 x %struct.patient]* %4, i64 0, i64 %76
  %78 = getelementptr inbounds %struct.patient, %struct.patient* %77, i32 0, i32 1
  %79 = load i32, i32* %78, align 4
  store i32 %79, i32* %7, align 4
  %80 = getelementptr inbounds [11 x i8], [11 x i8]* %8, i64 0, i64 0
  %81 = load i32, i32* %3, align 4
  %82 = add nsw i32 %81, 1
  %83 = sext i32 %82 to i64
  %84 = getelementptr inbounds [100 x %struct.patient], [100 x %struct.patient]* %4, i64 0, i64 %83
  %85 = getelementptr inbounds %struct.patient, %struct.patient* %84, i32 0, i32 0
  %86 = getelementptr inbounds [11 x i8], [11 x i8]* %85, i64 0, i64 0
  %87 = call i8* @strcpy(i8* %80, i8* %86) #3
  %88 = load i32, i32* %3, align 4
  %89 = sext i32 %88 to i64
  %90 = getelementptr inbounds [100 x %struct.patient], [100 x %struct.patient]* %4, i64 0, i64 %89
  %91 = getelementptr inbounds %struct.patient, %struct.patient* %90, i32 0, i32 1
  %92 = load i32, i32* %91, align 4
  %93 = load i32, i32* %3, align 4
  %94 = add nsw i32 %93, 1
  %95 = sext i32 %94 to i64
  %96 = getelementptr inbounds [100 x %struct.patient], [100 x %struct.patient]* %4, i64 0, i64 %95
  %97 = getelementptr inbounds %struct.patient, %struct.patient* %96, i32 0, i32 1
  store i32 %92, i32* %97, align 4
  %98 = load i32, i32* %3, align 4
  %99 = add nsw i32 %98, 1
  %100 = sext i32 %99 to i64
  %101 = getelementptr inbounds [100 x %struct.patient], [100 x %struct.patient]* %4, i64 0, i64 %100
  %102 = getelementptr inbounds %struct.patient, %struct.patient* %101, i32 0, i32 0
  %103 = getelementptr inbounds [11 x i8], [11 x i8]* %102, i64 0, i64 0
  %104 = load i32, i32* %3, align 4
  %105 = sext i32 %104 to i64
  %106 = getelementptr inbounds [100 x %struct.patient], [100 x %struct.patient]* %4, i64 0, i64 %105
  %107 = getelementptr inbounds %struct.patient, %struct.patient* %106, i32 0, i32 0
  %108 = getelementptr inbounds [11 x i8], [11 x i8]* %107, i64 0, i64 0
  %109 = call i8* @strcpy(i8* %103, i8* %108) #3
  %110 = load i32, i32* %7, align 4
  %111 = load i32, i32* %3, align 4
  %112 = sext i32 %111 to i64
  %113 = getelementptr inbounds [100 x %struct.patient], [100 x %struct.patient]* %4, i64 0, i64 %112
  %114 = getelementptr inbounds %struct.patient, %struct.patient* %113, i32 0, i32 1
  store i32 %110, i32* %114, align 4
  %115 = load i32, i32* %3, align 4
  %116 = sext i32 %115 to i64
  %117 = getelementptr inbounds [100 x %struct.patient], [100 x %struct.patient]* %4, i64 0, i64 %116
  %118 = getelementptr inbounds %struct.patient, %struct.patient* %117, i32 0, i32 0
  %119 = getelementptr inbounds [11 x i8], [11 x i8]* %118, i64 0, i64 0
  %120 = getelementptr inbounds [11 x i8], [11 x i8]* %8, i64 0, i64 0
  %121 = call i8* @strcpy(i8* %119, i8* %120) #3
  br label %122

122:                                              ; preds = %73, %60
  br label %123

123:                                              ; preds = %122
  %124 = load i32, i32* %3, align 4
  %125 = add nsw i32 %124, 1
  store i32 %125, i32* %3, align 4
  br label %54

126:                                              ; preds = %54
  br label %127

127:                                              ; preds = %126
  %128 = load i32, i32* %6, align 4
  %129 = add nsw i32 %128, 1
  store i32 %129, i32* %6, align 4
  br label %49

130:                                              ; preds = %49
  store i32 0, i32* %3, align 4
  br label %131

131:                                              ; preds = %150, %130
  %132 = load i32, i32* %3, align 4
  %133 = load i32, i32* %2, align 4
  %134 = icmp slt i32 %132, %133
  br i1 %134, label %135, label %153

135:                                              ; preds = %131
  %136 = load i32, i32* %3, align 4
  %137 = sext i32 %136 to i64
  %138 = getelementptr inbounds [100 x %struct.patient], [100 x %struct.patient]* %4, i64 0, i64 %137
  %139 = getelementptr inbounds %struct.patient, %struct.patient* %138, i32 0, i32 1
  %140 = load i32, i32* %139, align 4
  %141 = icmp sge i32 %140, 60
  br i1 %141, label %142, label %149

142:                                              ; preds = %135
  %143 = load i32, i32* %3, align 4
  %144 = sext i32 %143 to i64
  %145 = getelementptr inbounds [100 x %struct.patient], [100 x %struct.patient]* %4, i64 0, i64 %144
  %146 = getelementptr inbounds %struct.patient, %struct.patient* %145, i32 0, i32 0
  %147 = getelementptr inbounds [11 x i8], [11 x i8]* %146, i64 0, i64 0
  %148 = call i32 (i8*, ...) @printf(i8* getelementptr inbounds ([4 x i8], [4 x i8]* @.str.2, i64 0, i64 0), i8* %147)
  br label %149

149:                                              ; preds = %142, %135
  br label %150

150:                                              ; preds = %149
  %151 = load i32, i32* %3, align 4
  %152 = add nsw i32 %151, 1
  store i32 %152, i32* %3, align 4
  br label %131

153:                                              ; preds = %131
  store i32 0, i32* %3, align 4
  br label %154

154:                                              ; preds = %173, %153
  %155 = load i32, i32* %3, align 4
  %156 = load i32, i32* %2, align 4
  %157 = icmp slt i32 %155, %156
  br i1 %157, label %158, label %176

158:                                              ; preds = %154
  %159 = load i32, i32* %3, align 4
  %160 = sext i32 %159 to i64
  %161 = getelementptr inbounds [100 x %struct.patient], [100 x %struct.patient]* %5, i64 0, i64 %160
  %162 = getelementptr inbounds %struct.patient, %struct.patient* %161, i32 0, i32 1
  %163 = load i32, i32* %162, align 4
  %164 = icmp slt i32 %163, 60
  br i1 %164, label %165, label %172

165:                                              ; preds = %158
  %166 = load i32, i32* %3, align 4
  %167 = sext i32 %166 to i64
  %168 = getelementptr inbounds [100 x %struct.patient], [100 x %struct.patient]* %5, i64 0, i64 %167
  %169 = getelementptr inbounds %struct.patient, %struct.patient* %168, i32 0, i32 0
  %170 = getelementptr inbounds [11 x i8], [11 x i8]* %169, i64 0, i64 0
  %171 = call i32 (i8*, ...) @printf(i8* getelementptr inbounds ([4 x i8], [4 x i8]* @.str.2, i64 0, i64 0), i8* %170)
  br label %172

172:                                              ; preds = %165, %158
  br label %173

173:                                              ; preds = %172
  %174 = load i32, i32* %3, align 4
  %175 = add nsw i32 %174, 1
  store i32 %175, i32* %3, align 4
  br label %154

176:                                              ; preds = %154
  ret i32 0
}

declare dso_local i32 @__isoc99_scanf(i8*, ...) #1

; Function Attrs: nounwind
declare dso_local i8* @strcpy(i8*, i8*) #2

declare dso_local i32 @printf(i8*, ...) #1


!llvm.module.flags = !{!0}
!llvm.ident = !{!1}

!0 = !{i32 1, !"wchar_size", i32 4}
!1 = !{!"clang version 10.0.0-4ubuntu1 "}
